target datalayout = "e-m:e-p270:32:32-p271:32:32-p272:64:64-i64:64-i128:128-f80:128-n8:16:32:64-S128"
target triple = "x86_64-pc-linux-gnu"

%struct.strvec = type { ptr, i64, i64 }
%struct.set_gitdir_args = type { ptr, ptr, ptr, ptr, ptr, i32 }

@the_repository = external global ptr, align 8
@.str.9 = private unnamed_addr constant [15 x i8] c"GIT_COMMON_DIR\00", align 1
@.str.14 = private unnamed_addr constant [21 x i8] c"GIT_OBJECT_DIRECTORY\00", align 1
@__const.setup_git_env.to_free = private unnamed_addr constant %struct.strvec { ptr @empty_strvec, i64 0, i64 0 }, align 8
@.str.46 = private unnamed_addr constant [15 x i8] c"GIT_GRAFT_FILE\00", align 1
@.str.47 = private unnamed_addr constant [15 x i8] c"GIT_INDEX_FILE\00", align 1
@.str.48 = private unnamed_addr constant [33 x i8] c"GIT_ALTERNATE_OBJECT_DIRECTORIES\00", align 1
@.str.49 = private unnamed_addr constant [20 x i8] c"GIT_QUARANTINE_PATH\00", align 1
@.str.50 = private unnamed_addr constant [23 x i8] c"GIT_NO_REPLACE_OBJECTS\00", align 1
@.str.51 = private unnamed_addr constant [21 x i8] c"GIT_REPLACE_REF_BASE\00", align 1
@.str.52 = private unnamed_addr constant [14 x i8] c"refs/replace/\00", align 1
@.str.53 = private unnamed_addr constant [17 x i8] c"GIT_SHALLOW_FILE\00", align 1
@.str.54 = private unnamed_addr constant [18 x i8] c"GIT_NO_LAZY_FETCH\00", align 1
@fetch_if_missing = external global i32, align 4

; Function Attrs: nounwind uwtable
define dso_local void @setup_git_env(ptr noundef %0) #0 {
  %2 = alloca ptr, align 8
  %3 = alloca ptr, align 8
  %4 = alloca ptr, align 8
  %5 = alloca ptr, align 8
  %6 = alloca %struct.set_gitdir_args, align 8
  %7 = alloca %struct.strvec, align 8
  store ptr %0, ptr %2, align 8, !tbaa !4
  call void @llvm.lifetime.start.p0(i64 8, ptr %3) #13
  call void @llvm.lifetime.start.p0(i64 8, ptr %4) #13
  call void @llvm.lifetime.start.p0(i64 8, ptr %5) #13
  call void @llvm.lifetime.start.p0(i64 48, ptr %6) #13
  call void @llvm.memset.p0.i64(ptr align 8 %6, i8 0, i64 48, i1 false)
  call void @llvm.lifetime.start.p0(i64 24, ptr %7) #13
  call void @llvm.memcpy.p0.p0.i64(ptr align 8 %7, ptr align 8 @__const.setup_git_env.to_free, i64 24, i1 false)
  %8 = call ptr @getenv_safe(ptr noundef %7, ptr noundef @.str.9)
  %9 = getelementptr inbounds nuw %struct.set_gitdir_args, ptr %6, i32 0, i32 0
  store ptr %8, ptr %9, align 8, !tbaa !63
  %10 = call ptr @getenv_safe(ptr noundef %7, ptr noundef @.str.14)
  %11 = getelementptr inbounds nuw %struct.set_gitdir_args, ptr %6, i32 0, i32 1
  store ptr %10, ptr %11, align 8, !tbaa !65
  %12 = call ptr @getenv_safe(ptr noundef %7, ptr noundef @.str.46)
  %13 = getelementptr inbounds nuw %struct.set_gitdir_args, ptr %6, i32 0, i32 2
  store ptr %12, ptr %13, align 8, !tbaa !66
  %14 = call ptr @getenv_safe(ptr noundef %7, ptr noundef @.str.47)
  %15 = getelementptr inbounds nuw %struct.set_gitdir_args, ptr %6, i32 0, i32 3
  store ptr %14, ptr %15, align 8, !tbaa !67
  %16 = call ptr @getenv_safe(ptr noundef %7, ptr noundef @.str.48)
  %17 = getelementptr inbounds nuw %struct.set_gitdir_args, ptr %6, i32 0, i32 4
  store ptr %16, ptr %17, align 8, !tbaa !68
  %18 = call ptr @getenv(ptr noundef @.str.49) #13
  %19 = icmp ne ptr %18, null
  br i1 %19, label %20, label %22

20:                                               ; preds = %1
  %21 = getelementptr inbounds nuw %struct.set_gitdir_args, ptr %6, i32 0, i32 5
  store i32 1, ptr %21, align 8, !tbaa !69
  br label %22

22:                                               ; preds = %20, %1
  %23 = load ptr, ptr @the_repository, align 8, !tbaa !14
  %24 = load ptr, ptr %2, align 8, !tbaa !4
  call void @repo_set_gitdir(ptr noundef %23, ptr noundef %24, ptr noundef %6)
  call void @strvec_clear(ptr noundef %7)
  %25 = call ptr @getenv(ptr noundef @.str.50) #13
  %26 = icmp ne ptr %25, null
  br i1 %26, label %27, label %28

27:                                               ; preds = %22
  call void @disable_replace_refs()
  br label %28

28:                                               ; preds = %27, %22
  %29 = call ptr @getenv(ptr noundef @.str.51) #13
  store ptr %29, ptr %5, align 8, !tbaa !4
  %30 = load ptr, ptr %5, align 8, !tbaa !4
  %31 = icmp ne ptr %30, null
  br i1 %31, label %32, label %34

32:                                               ; preds = %28
  %33 = load ptr, ptr %5, align 8, !tbaa !4
  br label %35

34:                                               ; preds = %28
  br label %35

35:                                               ; preds = %34, %32
  %36 = phi ptr [ %33, %32 ], [ @.str.52, %34 ]
  %37 = call ptr @xstrdup(ptr noundef %36)
  store ptr %37, ptr %3, align 8, !tbaa !4
  %38 = load ptr, ptr %3, align 8, !tbaa !4
  call void @update_ref_namespace(i32 noundef 5, ptr noundef %38)
  %39 = call ptr @getenv(ptr noundef @.str.53) #13
  store ptr %39, ptr %4, align 8, !tbaa !4
  %40 = load ptr, ptr %4, align 8, !tbaa !4
  %41 = icmp ne ptr %40, null
  br i1 %41, label %42, label %45

42:                                               ; preds = %35
  %43 = load ptr, ptr @the_repository, align 8, !tbaa !14
  %44 = load ptr, ptr %4, align 8, !tbaa !4
  call void @set_alternate_shallow_file(ptr noundef %43, ptr noundef %44, i32 noundef 0)
  br label %45

45:                                               ; preds = %42, %35
  %46 = call i32 @git_env_bool(ptr noundef @.str.54, i32 noundef 0)
  %47 = icmp ne i32 %46, 0
  br i1 %47, label %48, label %49

48:                                               ; preds = %45
  store i32 0, ptr @fetch_if_missing, align 4, !tbaa !9
  br label %49

49:                                               ; preds = %48, %45
  call void @llvm.lifetime.end.p0(i64 24, ptr %7) #13
  call void @llvm.lifetime.end.p0(i64 48, ptr %6) #13
  call void @llvm.lifetime.end.p0(i64 8, ptr %5) #13
  call void @llvm.lifetime.end.p0(i64 8, ptr %4) #13
  call void @llvm.lifetime.end.p0(i64 8, ptr %3) #13
  ret void
}