; Function Attrs: nounwind uwtable
define dso_local void @setup_git_env(ptr noundef %0) local_unnamed_addr #0 {
  %2 = alloca %struct.set_gitdir_args, align 8
  %3 = alloca %struct.strvec, align 8
  call void @llvm.lifetime.start.p0(i64 48, ptr nonnull %2) #25
  %4 = getelementptr inbounds nuw i8, ptr %2, i64 40
  store i64 0, ptr %4, align 8
  call void @llvm.lifetime.start.p0(i64 24, ptr nonnull %3) #25
  call void @llvm.memcpy.p0.p0.i64(ptr noundef nonnull align 8 dereferenceable(24) %3, ptr noundef nonnull align 8 dereferenceable(24) @__const.setup_git_env.to_free, i64 24, i1 false)
  %5 = call ptr @getenv_safe(ptr noundef nonnull %3, ptr noundef nonnull @.str.9) #25
  store ptr %5, ptr %2, align 8, !tbaa !64
  %6 = call ptr @getenv_safe(ptr noundef nonnull %3, ptr noundef nonnull @.str.14) #25
  %7 = getelementptr inbounds nuw i8, ptr %2, i64 8
  store ptr %6, ptr %7, align 8, !tbaa !66
  %8 = call ptr @getenv_safe(ptr noundef nonnull %3, ptr noundef nonnull @.str.46) #25
  %9 = getelementptr inbounds nuw i8, ptr %2, i64 16
  store ptr %8, ptr %9, align 8, !tbaa !67
  %10 = call ptr @getenv_safe(ptr noundef nonnull %3, ptr noundef nonnull @.str.47) #25
  %11 = getelementptr inbounds nuw i8, ptr %2, i64 24
  store ptr %10, ptr %11, align 8, !tbaa !68
  %12 = call ptr @getenv_safe(ptr noundef nonnull %3, ptr noundef nonnull @.str.48) #25
  %13 = getelementptr inbounds nuw i8, ptr %2, i64 32
  store ptr %12, ptr %13, align 8, !tbaa !69
  %14 = call ptr @getenv(ptr noundef nonnull @.str.49) #25
  %.not = icmp eq ptr %14, null
  br i1 %.not, label %17, label %15

15:                                               ; preds = %1
  %16 = getelementptr inbounds nuw i8, ptr %2, i64 40
  store i32 1, ptr %16, align 8, !tbaa !70
  br label %17

17:                                               ; preds = %15, %1
  %18 = load ptr, ptr @the_repository, align 8, !tbaa !9
  call void @repo_set_gitdir(ptr noundef %18, ptr noundef %0, ptr noundef nonnull %2) #25
  call void @strvec_clear(ptr noundef nonnull %3) #25
  %19 = call ptr @getenv(ptr noundef nonnull @.str.50) #25
  %.not6 = icmp eq ptr %19, null
  br i1 %.not6, label %21, label %20

20:                                               ; preds = %17
  call void @disable_replace_refs() #25
  br label %21

21:                                               ; preds = %20, %17
  %22 = call ptr @getenv(ptr noundef nonnull @.str.51) #25
  %.not7 = icmp eq ptr %22, null
  %23 = select i1 %.not7, ptr @.str.52, ptr %22
  %24 = call ptr @xstrdup(ptr noundef nonnull %23) #25
  call void @update_ref_namespace(i32 noundef 5, ptr noundef %24) #25
  %25 = call ptr @getenv(ptr noundef nonnull @.str.53) #25
  %.not8 = icmp eq ptr %25, null
  br i1 %.not8, label %28, label %26

26:                                               ; preds = %21
  %27 = load ptr, ptr @the_repository, align 8, !tbaa !9
  call void @set_alternate_shallow_file(ptr noundef %27, ptr noundef nonnull %25, i32 noundef 0) #25
  br label %28

28:                                               ; preds = %26, %21
  %29 = call i32 @git_env_bool(ptr noundef nonnull @.str.54, i32 noundef 0) #25
  %.not9 = icmp eq i32 %29, 0
  br i1 %.not9, label %31, label %30

30:                                               ; preds = %28
  store i32 0, ptr @fetch_if_missing, align 4, !tbaa !7
  br label %31

31:                                               ; preds = %30, %28
  call void @llvm.lifetime.end.p0(i64 24, ptr nonnull %3) #25
  call void @llvm.lifetime.end.p0(i64 48, ptr nonnull %2) #25
  ret void
}